; ModuleID = '63/1137.c'
source_filename = "63/1137.c"
target datalayout = "e-m:e-p270:32:32-p271:32:32-p272:64:64-i64:64-f80:128-n8:16:32:64-S128"
target triple = "x86_64-pc-linux-gnu"

@.str = private unnamed_addr constant [6 x i8] c"%d %d\00", align 1
@.str.1 = private unnamed_addr constant [3 x i8] c"%d\00", align 1
@.str.2 = private unnamed_addr constant [4 x i8] c"%d \00", align 1
@.str.3 = private unnamed_addr constant [4 x i8] c"%d\0A\00", align 1

; Function Attrs: noinline nounwind uwtable
define dso_local i32 @main() #0 {
  %1 = alloca i32, align 4
  %2 = alloca i32, align 4
  %3 = alloca i32, align 4
  %4 = alloca i32, align 4
  %5 = alloca i32, align 4
  %6 = alloca i32, align 4
  %7 = alloca i32, align 4
  %8 = alloca i32, align 4
  %9 = alloca i32, align 4
  %10 = alloca i32, align 4
  %11 = alloca i32, align 4
  %12 = alloca i32, align 4
  %13 = alloca i32, align 4
  %14 = alloca i32, align 4
  %15 = alloca [101 x [101 x i32]], align 16
  %16 = alloca [101 x [101 x i32]], align 16
  %17 = alloca [101 x [101 x i32]], align 16
  %18 = alloca i32, align 4
  store i32 0, i32* %1, align 4
  %19 = call i32 (i8*, ...) @__isoc99_scanf(i8* getelementptr inbounds ([6 x i8], [6 x i8]* @.str, i64 0, i64 0), i32* %2, i32* %3)
  store i32 0, i32* %8, align 4
  br label %20

20:                                               ; preds = %41, %0
  %21 = load i32, i32* %8, align 4
  %22 = load i32, i32* %2, align 4
  %23 = icmp slt i32 %21, %22
  br i1 %23, label %24, label %44

24:                                               ; preds = %20
  store i32 0, i32* %9, align 4
  br label %25

25:                                               ; preds = %37, %24
  %26 = load i32, i32* %9, align 4
  %27 = load i32, i32* %3, align 4
  %28 = icmp slt i32 %26, %27
  br i1 %28, label %29, label %40

29:                                               ; preds = %25
  %30 = load i32, i32* %8, align 4
  %31 = sext i32 %30 to i64
  %32 = getelementptr inbounds [101 x [101 x i32]], [101 x [101 x i32]]* %15, i64 0, i64 %31
  %33 = load i32, i32* %9, align 4
  %34 = sext i32 %33 to i64
  %35 = getelementptr inbounds [101 x i32], [101 x i32]* %32, i64 0, i64 %34
  %36 = call i32 (i8*, ...) @__isoc99_scanf(i8* getelementptr inbounds ([3 x i8], [3 x i8]* @.str.1, i64 0, i64 0), i32* %35)
  br label %37

37:                                               ; preds = %29
  %38 = load i32, i32* %9, align 4
  %39 = add nsw i32 %38, 1
  store i32 %39, i32* %9, align 4
  br label %25

40:                                               ; preds = %25
  br label %41

41:                                               ; preds = %40
  %42 = load i32, i32* %8, align 4
  %43 = add nsw i32 %42, 1
  store i32 %43, i32* %8, align 4
  br label %20

44:                                               ; preds = %20
  %45 = call i32 (i8*, ...) @__isoc99_scanf(i8* getelementptr inbounds ([6 x i8], [6 x i8]* @.str, i64 0, i64 0), i32* %4, i32* %5)
  store i32 0, i32* %10, align 4
  br label %46

46:                                               ; preds = %67, %44
  %47 = load i32, i32* %10, align 4
  %48 = load i32, i32* %4, align 4
  %49 = icmp slt i32 %47, %48
  br i1 %49, label %50, label %70

50:                                               ; preds = %46
  store i32 0, i32* %11, align 4
  br label %51

51:                                               ; preds = %63, %50
  %52 = load i32, i32* %11, align 4
  %53 = load i32, i32* %5, align 4
  %54 = icmp slt i32 %52, %53
  br i1 %54, label %55, label %66

55:                                               ; preds = %51
  %56 = load i32, i32* %10, align 4
  %57 = sext i32 %56 to i64
  %58 = getelementptr inbounds [101 x [101 x i32]], [101 x [101 x i32]]* %16, i64 0, i64 %57
  %59 = load i32, i32* %11, align 4
  %60 = sext i32 %59 to i64
  %61 = getelementptr inbounds [101 x i32], [101 x i32]* %58, i64 0, i64 %60
  %62 = call i32 (i8*, ...) @__isoc99_scanf(i8* getelementptr inbounds ([3 x i8], [3 x i8]* @.str.1, i64 0, i64 0), i32* %61)
  br label %63

63:                                               ; preds = %55
  %64 = load i32, i32* %11, align 4
  %65 = add nsw i32 %64, 1
  store i32 %65, i32* %11, align 4
  br label %51

66:                                               ; preds = %51
  br label %67

67:                                               ; preds = %66
  %68 = load i32, i32* %10, align 4
  %69 = add nsw i32 %68, 1
  store i32 %69, i32* %10, align 4
  br label %46

70:                                               ; preds = %46
  %71 = load i32, i32* %2, align 4
  store i32 %71, i32* %6, align 4
  %72 = load i32, i32* %5, align 4
  store i32 %72, i32* %7, align 4
  store i32 0, i32* %12, align 4
  br label %73

73:                                               ; preds = %120, %70
  %74 = load i32, i32* %12, align 4
  %75 = load i32, i32* %6, align 4
  %76 = icmp slt i32 %74, %75
  br i1 %76, label %77, label %123

77:                                               ; preds = %73
  store i32 0, i32* %13, align 4
  br label %78

78:                                               ; preds = %116, %77
  %79 = load i32, i32* %13, align 4
  %80 = load i32, i32* %7, align 4
  %81 = icmp slt i32 %79, %80
  br i1 %81, label %82, label %119

82:                                               ; preds = %78
  store i32 0, i32* %18, align 4
  store i32 0, i32* %14, align 4
  br label %83

83:                                               ; preds = %105, %82
  %84 = load i32, i32* %14, align 4
  %85 = load i32, i32* %3, align 4
  %86 = icmp slt i32 %84, %85
  br i1 %86, label %87, label %108

87:                                               ; preds = %83
  %88 = load i32, i32* %12, align 4
  %89 = sext i32 %88 to i64
  %90 = getelementptr inbounds [101 x [101 x i32]], [101 x [101 x i32]]* %15, i64 0, i64 %89
  %91 = load i32, i32* %14, align 4
  %92 = sext i32 %91 to i64
  %93 = getelementptr inbounds [101 x i32], [101 x i32]* %90, i64 0, i64 %92
  %94 = load i32, i32* %93, align 4
  %95 = load i32, i32* %14, align 4
  %96 = sext i32 %95 to i64
  %97 = getelementptr inbounds [101 x [101 x i32]], [101 x [101 x i32]]* %16, i64 0, i64 %96
  %98 = load i32, i32* %13, align 4
  %99 = sext i32 %98 to i64
  %100 = getelementptr inbounds [101 x i32], [101 x i32]* %97, i64 0, i64 %99
  %101 = load i32, i32* %100, align 4
  %102 = mul nsw i32 %94, %101
  %103 = load i32, i32* %18, align 4
  %104 = add nsw i32 %103, %102
  store i32 %104, i32* %18, align 4
  br label %105

105:                                              ; preds = %87
  %106 = load i32, i32* %14, align 4
  %107 = add nsw i32 %106, 1
  store i32 %107, i32* %14, align 4
  br label %83

108:                                              ; preds = %83
  %109 = load i32, i32* %18, align 4
  %110 = load i32, i32* %12, align 4
  %111 = sext i32 %110 to i64
  %112 = getelementptr inbounds [101 x [101 x i32]], [101 x [101 x i32]]* %17, i64 0, i64 %111
  %113 = load i32, i32* %13, align 4
  %114 = sext i32 %113 to i64
  %115 = getelementptr inbounds [101 x i32], [101 x i32]* %112, i64 0, i64 %114
  store i32 %109, i32* %115, align 4
  br label %116

116:                                              ; preds = %108
  %117 = load i32, i32* %13, align 4
  %118 = add nsw i32 %117, 1
  store i32 %118, i32* %13, align 4
  br label %78

119:                                              ; preds = %78
  br label %120

120:                                              ; preds = %119
  %121 = load i32, i32* %12, align 4
  %122 = add nsw i32 %121, 1
  store i32 %122, i32* %12, align 4
  br label %73

123:                                              ; preds = %73
  store i32 0, i32* %12, align 4
  br label %124

124:                                              ; preds = %161, %123
  %125 = load i32, i32* %12, align 4
  %126 = load i32, i32* %6, align 4
  %127 = icmp slt i32 %125, %126
  br i1 %127, label %128, label %164

128:                                              ; preds = %124
  store i32 0, i32* %13, align 4
  br label %129

129:                                              ; preds = %143, %128
  %130 = load i32, i32* %13, align 4
  %131 = load i32, i32* %7, align 4
  %132 = sub nsw i32 %131, 1
  %133 = icmp slt i32 %130, %132
  br i1 %133, label %134, label %146

134:                                              ; preds = %129
  %135 = load i32, i32* %12, align 4
  %136 = sext i32 %135 to i64
  %137 = getelementptr inbounds [101 x [101 x i32]], [101 x [101 x i32]]* %17, i64 0, i64 %136
  %138 = load i32, i32* %13, align 4
  %139 = sext i32 %138 to i64
  %140 = getelementptr inbounds [101 x i32], [101 x i32]* %137, i64 0, i64 %139
  %141 = load i32, i32* %140, align 4
  %142 = call i32 (i8*, ...) @printf(i8* getelementptr inbounds ([4 x i8], [4 x i8]* @.str.2, i64 0, i64 0), i32 %141)
  br label %143

143:                                              ; preds = %134
  %144 = load i32, i32* %13, align 4
  %145 = add nsw i32 %144, 1
  store i32 %145, i32* %13, align 4
  br label %129

146:                                              ; preds = %129
  %147 = load i32, i32* %13, align 4
  %148 = load i32, i32* %7, align 4
  %149 = sub nsw i32 %148, 1
  %150 = icmp eq i32 %147, %149
  br i1 %150, label %151, label %160

151:                                              ; preds = %146
  %152 = load i32, i32* %12, align 4
  %153 = sext i32 %152 to i64
  %154 = getelementptr inbounds [101 x [101 x i32]], [101 x [101 x i32]]* %17, i64 0, i64 %153
  %155 = load i32, i32* %13, align 4
  %156 = sext i32 %155 to i64
  %157 = getelementptr inbounds [101 x i32], [101 x i32]* %154, i64 0, i64 %156
  %158 = load i32, i32* %157, align 4
  %159 = call i32 (i8*, ...) @printf(i8* getelementptr inbounds ([4 x i8], [4 x i8]* @.str.3, i64 0, i64 0), i32 %158)
  br label %160

160:                                              ; preds = %151, %146
  br label %161

161:                                              ; preds = %160
  %162 = load i32, i32* %12, align 4
  %163 = add nsw i32 %162, 1
  store i32 %163, i32* %12, align 4
  br label %124

164:                                              ; preds = %124
  ret i32 0
}

declare dso_local i32 @__isoc99_scanf(i8*, ...) #1

declare dso_local i32 @printf(i8*, ...) #1


!llvm.module.flags = !{!0}
!llvm.ident = !{!1}

!0 = !{i32 1, !"wchar_size", i32 4}
!1 = !{!"clang version 10.0.0-4ubuntu1 "}
